target datalayout = "e-m:e-p270:32:32-p271:32:32-p272:64:64-i64:64-i128:128-f80:128-n8:16:32:64-S128"
target triple = "x86_64-pc-linux-gnu"

%"struct.Luau::CodeGen::A64::RegisterA64" = type { i8 }
%"struct.Luau::CodeGen::Label" = type { i32, i32 }
%class.anon.231 = type { i8 }

@_ZN4Luau7CodeGen3A64L2x0E = internal constant %"struct.Luau::CodeGen::A64::RegisterA64" { i8 2 }, align 1
@_ZN4Luau7CodeGen3A64L2x1E = internal constant %"struct.Luau::CodeGen::A64::RegisterA64" { i8 10 }, align 1

; Function Attrs: mustprogress uwtable
define internal void @_ZZN12_GLOBAL__N_121DOCTEST_ANON_CLASS_271fEvENKUlRN4Luau7CodeGen3A6418AssemblyBuilderA64EE_clES5_(ptr noundef nonnull align 1 dereferenceable(1) %0, ptr noundef nonnull align 8 dereferenceable(176) %1) #4 align 2 {
  %3 = alloca ptr, align 8
  %4 = alloca ptr, align 8
  %5 = alloca %"struct.Luau::CodeGen::Label", align 4
  %6 = alloca %"struct.Luau::CodeGen::A64::RegisterA64", align 1
  %7 = alloca %"struct.Luau::CodeGen::A64::RegisterA64", align 1
  store ptr %0, ptr %3, align 8
  store ptr %1, ptr %4, align 8
  %8 = load ptr, ptr %4, align 8
  %9 = call i64 @_ZN4Luau7CodeGen3A6418AssemblyBuilderA648setLabelEv(ptr noundef nonnull align 8 dereferenceable(176) %8)
  store i64 %9, ptr %5, align 4
  %10 = load ptr, ptr %4, align 8
  call void @llvm.memcpy.p0.p0.i64(ptr align 1 %6, ptr align 1 @_ZN4Luau7CodeGen3A64L2x0E, i64 1, i1 false)
  call void @llvm.memcpy.p0.p0.i64(ptr align 1 %7, ptr align 1 @_ZN4Luau7CodeGen3A64L2x1E, i64 1, i1 false)
  %11 = getelementptr inbounds %"struct.Luau::CodeGen::A64::RegisterA64", ptr %6, i32 0, i32 0
  %12 = load i8, ptr %11, align 1
  %13 = getelementptr inbounds %"struct.Luau::CodeGen::A64::RegisterA64", ptr %7, i32 0, i32 0
  %14 = load i8, ptr %13, align 1
  call void @_ZN4Luau7CodeGen3A6418AssemblyBuilderA643movENS1_11RegisterA64ES3_(ptr noundef nonnull align 8 dereferenceable(176) %10, i8 %12, i8 %14)
  %15 = load ptr, ptr %4, align 8
  call void @_ZN4Luau7CodeGen3A6418AssemblyBuilderA641bENS1_12ConditionA64ERNS0_5LabelE(ptr noundef nonnull align 8 dereferenceable(176) %15, i32 noundef 0, ptr noundef nonnull align 4 dereferenceable(8) %5)
  ret void
}

; Function Attrs: mustprogress uwtable
define internal void @_ZZN12_GLOBAL__N_121DOCTEST_ANON_CLASS_271fEvENUlRN4Luau7CodeGen3A6418AssemblyBuilderA64EE_8__invokeES5_(ptr noundef nonnull align 8 dereferenceable(176) %0) #4 align 2 {
  %2 = alloca ptr, align 8
  %3 = alloca %class.anon.231, align 1
  store ptr %0, ptr %2, align 8
  %4 = load ptr, ptr %2, align 8
  call void @_ZZN12_GLOBAL__N_121DOCTEST_ANON_CLASS_271fEvENKUlRN4Luau7CodeGen3A6418AssemblyBuilderA64EE_clES5_(ptr noundef nonnull align 1 dereferenceable(1) %3, ptr noundef nonnull align 8 dereferenceable(176) %4)
  ret void
}