; Function Attrs: mustprogress uwtable
define internal void @_ZZN12_GLOBAL__N_121DOCTEST_ANON_CLASS_271fEvENUlRN4Luau7CodeGen3A6418AssemblyBuilderA64EE_8__invokeES5_(ptr noundef nonnull align 8 dereferenceable(176) %0) #2 align 2 {
  %2 = alloca %"struct.Luau::CodeGen::Label", align 8
  call void @llvm.lifetime.start.p0(i64 8, ptr nonnull %2)
  %3 = tail call i64 @_ZN4Luau7CodeGen3A6418AssemblyBuilderA648setLabelEv(ptr noundef nonnull align 8 dereferenceable(176) %0)
  store i64 %3, ptr %2, align 8
  tail call void @_ZN4Luau7CodeGen3A6418AssemblyBuilderA643movENS1_11RegisterA64ES3_(ptr noundef nonnull align 8 dereferenceable(176) %0, i8 2, i8 10)
  call void @_ZN4Luau7CodeGen3A6418AssemblyBuilderA641bENS1_12ConditionA64ERNS0_5LabelE(ptr noundef nonnull align 8 dereferenceable(176) %0, i32 noundef 0, ptr noundef nonnull align 4 dereferenceable(8) %2)
  call void @llvm.lifetime.end.p0(i64 8, ptr nonnull %2)
  ret void
}